; Function Attrs: mustprogress uwtable
define hidden void @_ZN19OpenColorIO_v2_4dev9LogOpData16unsetLinearSlopeEv(ptr noundef nonnull align 8 dereferenceable(252) %this) local_unnamed_addr #3 align 2 personality ptr @__gxx_personality_v0 {
entry:
  %m_redParams = getelementptr inbounds i8, ptr %this, i64 168
  %_M_finish.i = getelementptr inbounds i8, ptr %this, i64 176
  %0 = load ptr, ptr %_M_finish.i, align 8
  %1 = load ptr, ptr %m_redParams, align 8
  %sub.ptr.lhs.cast.i = ptrtoint ptr %0 to i64
  %sub.ptr.rhs.cast.i = ptrtoint ptr %1 to i64
  %sub.ptr.sub.i = sub i64 %sub.ptr.lhs.cast.i, %sub.ptr.rhs.cast.i
  %cmp = icmp eq i64 %sub.ptr.sub.i, 48
  br i1 %cmp, label %if.then5.i, label %if.end

if.then5.i:                                       ; preds = %entry
  %add.ptr.i = getelementptr inbounds i8, ptr %1, i64 40
  %tobool.not.i.i = icmp eq ptr %0, %add.ptr.i
  br i1 %tobool.not.i.i, label %_ZNSt6vectorIdSaIdEE6resizeEm.exit, label %invoke.cont.i.i

invoke.cont.i.i:                                  ; preds = %if.then5.i
  store ptr %add.ptr.i, ptr %_M_finish.i, align 8
  br label %_ZNSt6vectorIdSaIdEE6resizeEm.exit

_ZNSt6vectorIdSaIdEE6resizeEm.exit:               ; preds = %if.then5.i, %invoke.cont.i.i
  %m_greenParams = getelementptr inbounds i8, ptr %this, i64 192
  %_M_finish.i.i1 = getelementptr inbounds i8, ptr %this, i64 200
  %2 = load ptr, ptr %_M_finish.i.i1, align 8
  %3 = load ptr, ptr %m_greenParams, align 8
  %sub.ptr.lhs.cast.i.i2 = ptrtoint ptr %2 to i64
  %sub.ptr.rhs.cast.i.i3 = ptrtoint ptr %3 to i64
  %sub.ptr.sub.i.i4 = sub i64 %sub.ptr.lhs.cast.i.i2, %sub.ptr.rhs.cast.i.i3
  %sub.ptr.div.i.i5 = ashr exact i64 %sub.ptr.sub.i.i4, 3
  %cmp.i6 = icmp ult i64 %sub.ptr.div.i.i5, 5
  br i1 %cmp.i6, label %if.then.i13, label %if.else.i7

if.then.i13:                                      ; preds = %_ZNSt6vectorIdSaIdEE6resizeEm.exit
  %sub.i14 = sub nuw nsw i64 5, %sub.ptr.div.i.i5
  tail call void @_ZNSt6vectorIdSaIdEE17_M_default_appendEm(ptr noundef nonnull align 8 dereferenceable(24) %m_greenParams, i64 noundef %sub.i14)
  br label %_ZNSt6vectorIdSaIdEE6resizeEm.exit15

if.else.i7:                                       ; preds = %_ZNSt6vectorIdSaIdEE6resizeEm.exit
  %cmp4.i8.not = icmp eq i64 %sub.ptr.sub.i.i4, 40
  br i1 %cmp4.i8.not, label %_ZNSt6vectorIdSaIdEE6resizeEm.exit15, label %if.then5.i9

if.then5.i9:                                      ; preds = %if.else.i7
  %add.ptr.i10 = getelementptr inbounds i8, ptr %3, i64 40
  %tobool.not.i.i11 = icmp eq ptr %2, %add.ptr.i10
  br i1 %tobool.not.i.i11, label %_ZNSt6vectorIdSaIdEE6resizeEm.exit15, label %invoke.cont.i.i12

invoke.cont.i.i12:                                ; preds = %if.then5.i9
  store ptr %add.ptr.i10, ptr %_M_finish.i.i1, align 8
  br label %_ZNSt6vectorIdSaIdEE6resizeEm.exit15

_ZNSt6vectorIdSaIdEE6resizeEm.exit15:             ; preds = %if.then.i13, %if.else.i7, %if.then5.i9, %invoke.cont.i.i12
  %m_blueParams = getelementptr inbounds i8, ptr %this, i64 216
  %_M_finish.i.i16 = getelementptr inbounds i8, ptr %this, i64 224
  %4 = load ptr, ptr %_M_finish.i.i16, align 8
  %5 = load ptr, ptr %m_blueParams, align 8
  %sub.ptr.lhs.cast.i.i17 = ptrtoint ptr %4 to i64
  %sub.ptr.rhs.cast.i.i18 = ptrtoint ptr %5 to i64
  %sub.ptr.sub.i.i19 = sub i64 %sub.ptr.lhs.cast.i.i17, %sub.ptr.rhs.cast.i.i18
  %sub.ptr.div.i.i20 = ashr exact i64 %sub.ptr.sub.i.i19, 3
  %cmp.i21 = icmp ult i64 %sub.ptr.div.i.i20, 5
  br i1 %cmp.i21, label %if.then.i28, label %if.else.i22

if.then.i28:                                      ; preds = %_ZNSt6vectorIdSaIdEE6resizeEm.exit15
  %sub.i29 = sub nuw nsw i64 5, %sub.ptr.div.i.i20
  tail call void @_ZNSt6vectorIdSaIdEE17_M_default_appendEm(ptr noundef nonnull align 8 dereferenceable(24) %m_blueParams, i64 noundef %sub.i29)
  br label %if.end

if.else.i22:                                      ; preds = %_ZNSt6vectorIdSaIdEE6resizeEm.exit15
  %cmp4.i23.not = icmp eq i64 %sub.ptr.sub.i.i19, 40
  br i1 %cmp4.i23.not, label %if.end, label %if.then5.i24

if.then5.i24:                                     ; preds = %if.else.i22
  %add.ptr.i25 = getelementptr inbounds i8, ptr %5, i64 40
  %tobool.not.i.i26 = icmp eq ptr %4, %add.ptr.i25
  br i1 %tobool.not.i.i26, label %if.end, label %invoke.cont.i.i27

invoke.cont.i.i27:                                ; preds = %if.then5.i24
  store ptr %add.ptr.i25, ptr %_M_finish.i.i16, align 8
  br label %if.end

if.end:                                           ; preds = %invoke.cont.i.i27, %if.then5.i24, %if.else.i22, %if.then.i28, %entry
  ret void
}